target datalayout = "e-m:e-p270:32:32-p271:32:32-p272:64:64-i64:64-i128:128-f80:128-n8:16:32:64-S128"
target triple = "x86_64-pc-linux-gnu"

%struct.pointf_s = type { double, double }
%struct.boxf = type { %struct.pointf_s, %struct.pointf_s }
%struct.field_t = type { %struct.pointf_s, %struct.boxf, i32, ptr, ptr, ptr, i8, i8 }

; Function Attrs: nounwind uwtable
define internal void @free_field(ptr noundef %0) #0 {
  %2 = alloca ptr, align 8
  %3 = alloca i32, align 4
  store ptr %0, ptr %2, align 8, !tbaa !120
  call void @llvm.lifetime.start.p0(i64 4, ptr %3) #13
  store i32 0, ptr %3, align 4, !tbaa !12
  br label %4

4:                                                ; preds = %18, %1
  %5 = load i32, ptr %3, align 4, !tbaa !12
  %6 = load ptr, ptr %2, align 8, !tbaa !120
  %7 = getelementptr inbounds nuw %struct.field_t, ptr %6, i32 0, i32 2
  %8 = load i32, ptr %7, align 8, !tbaa !185
  %9 = icmp slt i32 %5, %8
  br i1 %9, label %10, label %21

10:                                               ; preds = %4
  %11 = load ptr, ptr %2, align 8, !tbaa !120
  %12 = getelementptr inbounds nuw %struct.field_t, ptr %11, i32 0, i32 4
  %13 = load ptr, ptr %12, align 8, !tbaa !176
  %14 = load i32, ptr %3, align 4, !tbaa !12
  %15 = sext i32 %14 to i64
  %16 = getelementptr inbounds ptr, ptr %13, i64 %15
  %17 = load ptr, ptr %16, align 8, !tbaa !120
  call void @free_field(ptr noundef %17)
  br label %18

18:                                               ; preds = %10
  %19 = load i32, ptr %3, align 4, !tbaa !12
  %20 = add nsw i32 %19, 1
  store i32 %20, ptr %3, align 4, !tbaa !12
  br label %4, !llvm.loop !191

21:                                               ; preds = %4
  %22 = load ptr, ptr %2, align 8, !tbaa !120
  %23 = getelementptr inbounds nuw %struct.field_t, ptr %22, i32 0, i32 5
  %24 = load ptr, ptr %23, align 8, !tbaa !180
  call void @free(ptr noundef %24) #13
  %25 = load ptr, ptr %2, align 8, !tbaa !120
  %26 = getelementptr inbounds nuw %struct.field_t, ptr %25, i32 0, i32 3
  %27 = load ptr, ptr %26, align 8, !tbaa !184
  call void @free_label(ptr noundef %27)
  %28 = load ptr, ptr %2, align 8, !tbaa !120
  %29 = getelementptr inbounds nuw %struct.field_t, ptr %28, i32 0, i32 4
  %30 = load ptr, ptr %29, align 8, !tbaa !176
  call void @free(ptr noundef %30) #13
  %31 = load ptr, ptr %2, align 8, !tbaa !120
  call void @free(ptr noundef %31) #13
  call void @llvm.lifetime.end.p0(i64 4, ptr %3) #13
  ret void
}