; Function Attrs: nounwind uwtable
define internal fastcc void @free_field(ptr noundef captures(none) %0) unnamed_addr #0 {
  %2 = getelementptr inbounds nuw i8, ptr %0, i64 48
  %3 = load i32, ptr %2, align 8, !tbaa !163
  %4 = icmp sgt i32 %3, 0
  br i1 %4, label %.lr.ph, label %._crit_edge

.lr.ph:                                           ; preds = %1
  %5 = getelementptr inbounds nuw i8, ptr %0, i64 64
  br label %6

6:                                                ; preds = %.lr.ph, %6
  %indvars.iv = phi i64 [ 0, %.lr.ph ], [ %indvars.iv.next, %6 ]
  %7 = load ptr, ptr %5, align 8, !tbaa !152
  %8 = getelementptr inbounds nuw ptr, ptr %7, i64 %indvars.iv
  %9 = load ptr, ptr %8, align 8, !tbaa !156
  tail call fastcc void @free_field(ptr noundef %9)
  %indvars.iv.next = add nuw nsw i64 %indvars.iv, 1
  %10 = load i32, ptr %2, align 8, !tbaa !163
  %11 = sext i32 %10 to i64
  %12 = icmp slt i64 %indvars.iv.next, %11
  br i1 %12, label %6, label %._crit_edge, !llvm.loop !169

._crit_edge:                                      ; preds = %6, %1
  %13 = getelementptr inbounds nuw i8, ptr %0, i64 72
  %14 = load ptr, ptr %13, align 8, !tbaa !158
  tail call void @free(ptr noundef %14) #26
  %15 = getelementptr inbounds nuw i8, ptr %0, i64 56
  %16 = load ptr, ptr %15, align 8, !tbaa !162
  tail call void @free_label(ptr noundef %16) #26
  %17 = getelementptr inbounds nuw i8, ptr %0, i64 64
  %18 = load ptr, ptr %17, align 8, !tbaa !152
  tail call void @free(ptr noundef %18) #26
  tail call void @free(ptr noundef nonnull %0) #26
  ret void
}